; Function Attrs: mustprogress uwtable
define noundef ptr @_ZN4dmlc2io12LineSplitter19FindLastRecordBeginEPKcS3_(ptr nonnull readnone align 8 captures(none) %0, ptr noundef readnone captures(address, ret: address, provenance) %1, ptr noundef readonly captures(address, ret: address, provenance) %2) unnamed_addr #3 align 2 personality ptr @__gxx_personality_v0 {
  %4 = alloca %"class.dmlc::LogMessageFatal", align 1
  %.not = icmp eq ptr %1, %2
  br i1 %.not, label %5, label %.preheader

.preheader:                                       ; preds = %_ZStlsISt11char_traitsIcEERSt13basic_ostreamIcT_ES5_PKc.exit17, %3
  br label %13

5:                                                ; preds = %3
  call void @llvm.lifetime.start.p0(i64 1, ptr nonnull %4) #12
  %6 = call noundef nonnull align 8 dereferenceable(376) ptr @_ZN4dmlc15LogMessageFatal8GetEntryEv(ptr noundef nonnull align 1 dereferenceable(1) %4)
  call void @_ZN4dmlc15LogMessageFatal5Entry4InitEPKci(ptr noundef nonnull align 8 dereferenceable(376) %6, ptr noundef nonnull @.str, i32 noundef 29)
  %7 = invoke noundef nonnull align 8 dereferenceable(376) ptr @_ZN4dmlc15LogMessageFatal8GetEntryEv(ptr noundef nonnull align 1 dereferenceable(1) %4)
          to label %_ZN4dmlc15LogMessageFatal6streamB5cxx11Ev.exit unwind label %10

_ZN4dmlc15LogMessageFatal6streamB5cxx11Ev.exit:   ; preds = %5
  %8 = invoke noundef nonnull align 8 dereferenceable(8) ptr @_ZSt16__ostream_insertIcSt11char_traitsIcEERSt13basic_ostreamIT_T0_ES6_PKS3_l(ptr noundef nonnull align 8 dereferenceable(8) %7, ptr noundef nonnull @.str.1, i64 noundef 26)
          to label %_ZStlsISt11char_traitsIcEERSt13basic_ostreamIcT_ES5_PKc.exit unwind label %10

_ZStlsISt11char_traitsIcEERSt13basic_ostreamIcT_ES5_PKc.exit: ; preds = %_ZN4dmlc15LogMessageFatal6streamB5cxx11Ev.exit
  %9 = invoke noundef nonnull align 8 dereferenceable(8) ptr @_ZSt16__ostream_insertIcSt11char_traitsIcEERSt13basic_ostreamIT_T0_ES6_PKS3_l(ptr noundef nonnull align 8 dereferenceable(8) %7, ptr noundef nonnull @.str.2, i64 noundef 2)
          to label %_ZStlsISt11char_traitsIcEERSt13basic_ostreamIcT_ES5_PKc.exit17 unwind label %10

_ZStlsISt11char_traitsIcEERSt13basic_ostreamIcT_ES5_PKc.exit17: ; preds = %_ZStlsISt11char_traitsIcEERSt13basic_ostreamIcT_ES5_PKc.exit
  call void @_ZN4dmlc15LogMessageFatalD2Ev(ptr noundef nonnull align 1 dereferenceable(1) %4)
  call void @llvm.lifetime.end.p0(i64 1, ptr nonnull %4) #12
  br label %.preheader

10:                                               ; preds = %_ZStlsISt11char_traitsIcEERSt13basic_ostreamIcT_ES5_PKc.exit, %_ZN4dmlc15LogMessageFatal6streamB5cxx11Ev.exit, %5
  %11 = landingpad { ptr, i32 }
          cleanup
  invoke void @_ZN4dmlc15LogMessageFatalD2Ev(ptr noundef nonnull align 1 dereferenceable(1) %4)
          to label %12 unwind label %17

12:                                               ; preds = %10
  call void @llvm.lifetime.end.p0(i64 1, ptr nonnull %4) #12
  resume { ptr, i32 } %11

13:                                               ; preds = %.preheader, %14
  %.pn = phi ptr [ %.013, %14 ], [ %2, %.preheader ]
  %.013 = getelementptr inbounds i8, ptr %.pn, i64 -1
  %.not16 = icmp eq ptr %.013, %1
  br i1 %.not16, label %16, label %14

14:                                               ; preds = %13
  %15 = load i8, ptr %.013, align 1, !tbaa !3
  switch i8 %15, label %13 [
    i8 10, label %16
    i8 13, label %16
  ], !llvm.loop !10

16:                                               ; preds = %14, %14, %13
  %spec.select = phi ptr [ %1, %13 ], [ %.pn, %14 ], [ %.pn, %14 ]
  ret ptr %spec.select

17:                                               ; preds = %10
  %18 = landingpad { ptr, i32 }
          catch ptr null
  %19 = extractvalue { ptr, i32 } %18, 0
  call void @__clang_call_terminate(ptr %19) #28
  unreachable
}